; Function Attrs: mustprogress nofree norecurse nosync nounwind willreturn memory(argmem: readwrite) uwtable
define void @_ZN7rocksdb31MultiValuesTraceExecutionResultC2ESt6vectorINS_6StatusESaIS2_EES1_INSt7__cxx1112basic_stringIcSt11char_traitsIcESaIcEEESaISA_EEmmNS_9TraceTypeE(ptr noundef nonnull writeonly align 8 captures(none) dereferenceable(80) initializes((0, 9), (16, 80)) %0, ptr noundef captures(none) %1, ptr noundef captures(none) %2, i64 noundef %3, i64 noundef %4, i8 noundef signext %5) unnamed_addr #6 align 2 {
  %7 = getelementptr inbounds nuw i8, ptr %0, i64 8
  store i8 %5, ptr %7, align 8, !tbaa !7
  %8 = getelementptr inbounds nuw i8, ptr %0, i64 16
  store i64 %3, ptr %8, align 8, !tbaa !11
  %9 = getelementptr inbounds nuw i8, ptr %0, i64 24
  store i64 %4, ptr %9, align 8, !tbaa !14
  store ptr getelementptr inbounds nuw inrange(-16, 64) (i8, ptr @_ZTVN7rocksdb31MultiValuesTraceExecutionResultE, i64 16), ptr %0, align 8, !tbaa !4
  %10 = getelementptr inbounds nuw i8, ptr %0, i64 32
  %11 = load ptr, ptr %1, align 8, !tbaa !49
  store ptr %11, ptr %10, align 8, !tbaa !49
  %12 = getelementptr inbounds nuw i8, ptr %0, i64 40
  %13 = getelementptr inbounds nuw i8, ptr %1, i64 8
  %14 = load ptr, ptr %13, align 8, !tbaa !52
  store ptr %14, ptr %12, align 8, !tbaa !52
  %15 = getelementptr inbounds nuw i8, ptr %0, i64 48
  %16 = getelementptr inbounds nuw i8, ptr %1, i64 16
  %17 = load ptr, ptr %16, align 8, !tbaa !53
  store ptr %17, ptr %15, align 8, !tbaa !53
  tail call void @llvm.memset.p0.i64(ptr noundef nonnull align 8 dereferenceable(24) %1, i8 0, i64 24, i1 false)
  %18 = getelementptr inbounds nuw i8, ptr %0, i64 56
  %19 = load ptr, ptr %2, align 8, !tbaa !54
  store ptr %19, ptr %18, align 8, !tbaa !54
  %20 = getelementptr inbounds nuw i8, ptr %0, i64 64
  %21 = getelementptr inbounds nuw i8, ptr %2, i64 8
  %22 = load ptr, ptr %21, align 8, !tbaa !57
  store ptr %22, ptr %20, align 8, !tbaa !57
  %23 = getelementptr inbounds nuw i8, ptr %0, i64 72
  %24 = getelementptr inbounds nuw i8, ptr %2, i64 16
  %25 = load ptr, ptr %24, align 8, !tbaa !58
  store ptr %25, ptr %23, align 8, !tbaa !58
  tail call void @llvm.memset.p0.i64(ptr noundef nonnull align 8 dereferenceable(24) %2, i8 0, i64 24, i1 false)
  ret void
}